; Function Attrs: nounwind uwtable
define dso_local { i64, ptr } @jv_object_get(i64 %0, ptr %1, i64 %2, ptr %3) local_unnamed_addr #2 {
  %5 = tail call fastcc ptr @jvp_object_find_bucket(i64 %0, ptr %1, ptr %3)
  %6 = tail call fastcc ptr @jvp_object_find_slot(ptr %1, ptr %3, ptr noundef nonnull %5)
  %7 = icmp eq ptr %6, null
  br i1 %7, label %jv_copy.exit, label %8

8:                                                ; preds = %4
  %9 = getelementptr inbounds nuw i8, ptr %6, i64 24
  %10 = load i64, ptr %9, align 8
  %11 = getelementptr inbounds nuw i8, ptr %6, i64 32
  %12 = load ptr, ptr %11, align 8
  %13 = and i64 %10, 128
  %.not.i = icmp eq i64 %13, 0
  br i1 %.not.i, label %jv_copy.exit, label %14

14:                                               ; preds = %8
  %15 = load i32, ptr %12, align 4, !tbaa !9
  %16 = add nsw i32 %15, 1
  store i32 %16, ptr %12, align 4, !tbaa !9
  br label %jv_copy.exit

jv_copy.exit:                                     ; preds = %14, %8, %4
  %.sroa.011.0 = phi i64 [ 0, %4 ], [ %10, %8 ], [ %10, %14 ]
  %.sroa.312.0 = phi ptr [ null, %4 ], [ %12, %8 ], [ %12, %14 ]
  tail call void @jv_free(i64 %0, ptr %1)
  tail call void @jv_free(i64 %2, ptr %3)
  %.fca.0.insert = insertvalue { i64, ptr } poison, i64 %.sroa.011.0, 0
  %.fca.1.insert = insertvalue { i64, ptr } %.fca.0.insert, ptr %.sroa.312.0, 1
  ret { i64, ptr } %.fca.1.insert
}